###############################################################################
#
# IAR ELF Linker V7.40.2.8542/W32 for ARM                 21/May/2015  13:39:09
# Copyright 2007-2015 IAR Systems AB.
#
#    Output file  =  
#        C:\Users\dfronek\Documents\Project\softpack\examples\getting_started\build\debug\Exe\getting_started.out
#    Map file     =  
#        C:\Users\dfronek\Documents\Project\softpack\examples\getting_started\build\debug\List\getting_started.map
#    Command line =  
#        C:\Users\dfronek\Documents\Project\softpack\examples\getting_started\build\debug\Obj\act8945A.o
#        C:\Users\dfronek\Documents\Project\softpack\examples\getting_started\build\debug\Obj\aic.o
#        C:\Users\dfronek\Documents\Project\softpack\examples\getting_started\build\debug\Obj\async.o
#        C:\Users\dfronek\Documents\Project\softpack\examples\getting_started\build\debug\Obj\board_cstartup_iar.o
#        C:\Users\dfronek\Documents\Project\softpack\examples\getting_started\build\debug\Obj\board_lowlevel.o
#        C:\Users\dfronek\Documents\Project\softpack\examples\getting_started\build\debug\Obj\board_memories.o
#        C:\Users\dfronek\Documents\Project\softpack\examples\getting_started\build\debug\Obj\can.o
#        C:\Users\dfronek\Documents\Project\softpack\examples\getting_started\build\debug\Obj\console.o
#        C:\Users\dfronek\Documents\Project\softpack\examples\getting_started\build\debug\Obj\cp15.o
#        C:\Users\dfronek\Documents\Project\softpack\examples\getting_started\build\debug\Obj\cp15_asm_iar.o
#        C:\Users\dfronek\Documents\Project\softpack\examples\getting_started\build\debug\Obj\cp15_pmu.o
#        C:\Users\dfronek\Documents\Project\softpack\examples\getting_started\build\debug\Obj\flexcom.o
#        C:\Users\dfronek\Documents\Project\softpack\examples\getting_started\build\debug\Obj\l2cc.o
#        C:\Users\dfronek\Documents\Project\softpack\examples\getting_started\build\debug\Obj\led.o
#        C:\Users\dfronek\Documents\Project\softpack\examples\getting_started\build\debug\Obj\main.o
#        C:\Users\dfronek\Documents\Project\softpack\examples\getting_started\build\debug\Obj\mmu.o
#        C:\Users\dfronek\Documents\Project\softpack\examples\getting_started\build\debug\Obj\pio4.o
#        C:\Users\dfronek\Documents\Project\softpack\examples\getting_started\build\debug\Obj\pio4_it.o
#        C:\Users\dfronek\Documents\Project\softpack\examples\getting_started\build\debug\Obj\pit.o
#        C:\Users\dfronek\Documents\Project\softpack\examples\getting_started\build\debug\Obj\pmc.o
#        C:\Users\dfronek\Documents\Project\softpack\examples\getting_started\build\debug\Obj\pwmc.o
#        C:\Users\dfronek\Documents\Project\softpack\examples\getting_started\build\debug\Obj\rstc.o
#        C:\Users\dfronek\Documents\Project\softpack\examples\getting_started\build\debug\Obj\rtc.o
#        C:\Users\dfronek\Documents\Project\softpack\examples\getting_started\build\debug\Obj\rtc_calib.o
#        C:\Users\dfronek\Documents\Project\softpack\examples\getting_started\build\debug\Obj\spi.o
#        C:\Users\dfronek\Documents\Project\softpack\examples\getting_started\build\debug\Obj\ssc.o
#        C:\Users\dfronek\Documents\Project\softpack\examples\getting_started\build\debug\Obj\tc.o
#        C:\Users\dfronek\Documents\Project\softpack\examples\getting_started\build\debug\Obj\timetick.o
#        C:\Users\dfronek\Documents\Project\softpack\examples\getting_started\build\debug\Obj\twi.o
#        C:\Users\dfronek\Documents\Project\softpack\examples\getting_started\build\debug\Obj\twid.o
#        C:\Users\dfronek\Documents\Project\softpack\examples\getting_started\build\debug\Obj\uart.o
#        C:\Users\dfronek\Documents\Project\softpack\examples\getting_started\build\debug\Obj\usart.o
#        C:\Users\dfronek\Documents\Project\softpack\examples\getting_started\build\debug\Obj\wdt.o
#        C:\Users\dfronek\Documents\Project\softpack\examples\getting_started\build\debug\Obj\xdmad.o
#        -o
#        C:\Users\dfronek\Documents\Project\softpack\examples\getting_started\build\debug\Exe\getting_started.out
#        --map
#        C:\Users\dfronek\Documents\Project\softpack\examples\getting_started\build\debug\List\getting_started.map
#        --config
#        C:\Users\dfronek\Documents\Project\softpack\examples\getting_started\..\..\target\resources\iar\sram.icf
#        --entry __iar_program_start --vfe
#
###############################################################################

*******************************************************************************
*** RUNTIME MODEL ATTRIBUTES
***

CppFlavor       = *
__SystemLibrary = DLib


*******************************************************************************
*** PLACEMENT SUMMARY
***

"P1":  place in [from 0x00200000 to 0x002000ff] { section .vectors };
"P2":  place in [from 0x00200100 to 0x00220000] { ro };
"P4":  place in [from 0x00200100 to 0x00220000] {
          rw, block CSTACK, block SVC_STACK, block IRQ_STACK, block FIQ_STACK,
          block UND_STACK, block ABT_STACK, block HEAP };

  Section            Kind        Address    Size  Object
  -------            ----        -------    ----  ------
"P1":                                       0x3c
  .vectors           ro code  0x00200000    0x3c  board_cstartup_iar.o [1]
                            - 0x0020003c    0x3c

"P2":                                     0x604c
  SOFTPACK           ro code  0x00200100  0x1090  board_lowlevel.o [1]
  SOFTPACK           ro code  0x00201190   0x328  pmc.o [1]
  SOFTPACK           ro code  0x002014b8    0x34  board_memories.o [1]
  .text              ro code  0x002014ec    0x28  printf.o [3]
  .text              ro code  0x00201514   0x1a8  I32DivMod.o [5]
  .text              ro code  0x002016bc    0x1e  assert.o [3]
  .text              ro code  0x002016da   0xc2c  xprintflarge_nomb.o [3]
  .text              ro code  0x00202306    0x22  zero_init3.o [5]
  .text              ro code  0x00202328     0x4  IntDivZer.o [5]
  Veneer             ro code  0x0020232c     0x8  - Linker created -
  .text              ro code  0x00202334     0x6  abort.o [3]
  .rodata            const    0x0020233a     0x2  xprintflarge_nomb.o [3]
  .text              ro code  0x0020233c    0x20  strchr.o [5]
  .text              ro code  0x0020235c    0x54  strlen.o [5]
  .text              ro code  0x002023b0    0x94  memchr.o [5]
  .text              ro code  0x00202444   0x130  I64DivMod.o [5]
  .text              ro code  0x00202574    0xd4  ABImemcpy.o [5]
  .text              ro code  0x00202648    0x42  xdnorm.o [4]
  .text              ro code  0x0020268c    0x2e  DblCmpLe.o [4]
  .text              ro code  0x002026bc   0x1a2  DblMul.o [4]
  .text              ro code  0x00202860   0x38c  DblDiv.o [4]
  .text              ro code  0x00202bec    0x2c  DblToI32.o [4]
  .text              ro code  0x00202c18    0x1c  I32ToDbl.o [4]
  .text              ro code  0x00202c34   0x180  DblSub.o [4]
  .text              ro code  0x00202db4    0x1c  div.o [3]
  .text              ro code  0x00202dd0    0x14  XXexit.o [5]
  .text              ro code  0x00202de4     0x4  I64DivZer.o [5]
  .text              ro code  0x00202de8    0xd4  DblAdd.o [4]
  SOFTPACK           ro code  0x00202ebc   0x61c  twid.o [1]
  SOFTPACK           ro code  0x002034d8   0x188  xdmad.o [1]
  SOFTPACK           ro code  0x00203660   0x50c  twi.o [1]
  SOFTPACK           ro code  0x00203b6c   0x5d8  act8945A.o [1]
  .text              ro code  0x00204144    0x74  ABImemset.o [5]
  SOFTPACK           ro code  0x002041b8   0x2dc  pio4.o [1]
  SOFTPACK           ro code  0x00204494    0x94  flexcom.o [1]
  SOFTPACK           ro code  0x00204528    0x50  usart.o [1]
  SOFTPACK           ro code  0x00204578     0xc  spi.o [1]
  SOFTPACK           ro code  0x00204584   0x408  main.o [1]
  SOFTPACK           ro code  0x0020498c   0x16c  led.o [1]
  SOFTPACK           ro code  0x00204af8   0x1c4  tc.o [1]
  SOFTPACK           ro code  0x00204cbc   0x150  console.o [1]
  SOFTPACK           ro code  0x00204e0c    0xac  pit.o [1]
  SOFTPACK           ro code  0x00204eb8   0x23c  aic.o [1]
  SOFTPACK           ro code  0x002050f4     0xc  wdt.o [1]
  SOFTPACK           ro code  0x00205100    0x84  pio4_it.o [1]
  .rodata            const    0x00205184   0x13c  board_lowlevel.o [1]
  SOFTPACK           ro code  0x002052c0   0x124  uart.o [1]
  .text              ro code  0x002053e4    0xfc  board_cstartup_iar.o [1]
  .text              ro code  0x002054e0    0x2c  cmain.o [5]
  .text              ro code  0x0020550c    0x30  data_init.o [5]
  Veneer             ro code  0x0020553c     0x8  - Linker created -
  .text              ro code  0x00205544     0x4  exit.o [3]
  .text              ro code  0x00205548    0x10  cexit.o [5]
  .rodata            const    0x00205558    0x4c  board_lowlevel.o [1]
  .rodata            const    0x002055a4    0x48  flexcom.o [1]
  .rodata            const    0x002055ec    0x44  act8945A.o [1]
  .rodata            const    0x00205630    0x44  tc.o [1]
  .rodata            const    0x00205674    0x40  pio4.o [1]
  .rodata            const    0x002056b4    0x40  pmc.o [1]
  .rodata            const    0x002056f4    0x40  tc.o [1]
  .rodata            const    0x00205734    0x40  twi.o [1]
  .rodata            const    0x00205774    0x40  twid.o [1]
  .rodata            const    0x002057b4    0x40  xdmad.o [1]
  .rodata            const    0x002057f4    0x3c  board_lowlevel.o [1]
  .rodata            const    0x00205830    0x3c  board_lowlevel.o [1]
  .rodata            const    0x0020586c    0x3c  main.o [1]
  .rodata            const    0x002058a8    0x38  main.o [1]
  .rodata            const    0x002058e0    0x38  xdmad.o [1]
  .rodata            const    0x00205918    0x34  board_lowlevel.o [1]
  .rodata            const    0x0020594c    0x30  main.o [1]
  .rodata            const    0x0020597c    0x30  twid.o [1]
  .rodata            const    0x002059ac    0x30  twid.o [1]
  .rodata            const    0x002059dc    0x2c  board_lowlevel.o [1]
  .rodata            const    0x00205a08    0x2c  board_lowlevel.o [1]
  .rodata            const    0x00205a34    0x2c  board_lowlevel.o [1]
  .rodata            const    0x00205a60    0x2c  board_lowlevel.o [1]
  .rodata            const    0x00205a8c    0x2c  board_lowlevel.o [1]
  .rodata            const    0x00205ab8    0x2c  main.o [1]
  .text              ro code  0x00205ae4    0x2c  copy_init3.o [5]
  .rodata            const    0x00205b10    0x24  board_lowlevel.o [1]
  .rodata            const    0x00205b34    0x24  board_lowlevel.o [1]
  .rodata            const    0x00205b58    0x24  led.o [1]
  .rodata            const    0x00205b7c    0x24  main.o [1]
  .rodata            const    0x00205ba0    0x24  main.o [1]
  .iar.init_table    const    0x00205bc4    0x24  - Linker created -
  .rodata            const    0x00205be8    0x20  board_lowlevel.o [1]
  .rodata            const    0x00205c08    0x20  pio4.o [1]
  .rodata            const    0x00205c28    0x20  twi.o [1]
  .rodata            const    0x00205c48    0x20  twid.o [1]
  .rodata            const    0x00205c68    0x20  assert.o [3]
  .rodata            const    0x00205c88    0x1c  board_lowlevel.o [1]
  .rodata            const    0x00205ca4    0x1c  board_lowlevel.o [1]
  .rodata            const    0x00205cc0    0x1c  board_lowlevel.o [1]
  .rodata            const    0x00205cdc    0x1c  board_lowlevel.o [1]
  .rodata            const    0x00205cf8    0x1c  board_lowlevel.o [1]
  .rodata            const    0x00205d14    0x1c  pio4.o [1]
  .rodata            const    0x00205d30    0x1c  twi.o [1]
  .rodata            const    0x00205d4c    0x18  board_lowlevel.o [1]
  .rodata            const    0x00205d64    0x18  board_lowlevel.o [1]
  .rodata            const    0x00205d7c    0x18  board_lowlevel.o [1]
  .rodata            const    0x00205d94    0x18  board_lowlevel.o [1]
  .rodata            const    0x00205dac    0x18  console.o [1]
  .rodata            const    0x00205dc4    0x18  console.o [1]
  .rodata            const    0x00205ddc    0x18  main.o [1]
  .rodata            const    0x00205df4    0x18  main.o [1]
  .rodata            const    0x00205e0c    0x18  main.o [1]
  .rodata            const    0x00205e24    0x18  pmc.o [1]
  .rodata            const    0x00205e3c    0x18  twi.o [1]
  .rodata            const    0x00205e54    0x18  twi.o [1]
  .rodata            const    0x00205e6c    0x18  twid.o [1]
  .rodata            const    0x00205e84    0x18  twid.o [1]
  .rodata            const    0x00205e9c    0x18  twid.o [1]
  .rodata            const    0x00205eb4    0x18  twid.o [1]
  .text              ro code  0x00205ecc    0x16  xprout.o [3]
  .rodata            const    0x00205ee4    0x14  act8945A.o [1]
  .rodata            const    0x00205ef8    0x14  act8945A.o [1]
  .rodata            const    0x00205f0c    0x14  board_lowlevel.o [1]
  .rodata            const    0x00205f20    0x14  board_lowlevel.o [1]
  .rodata            const    0x00205f34    0x14  board_lowlevel.o [1]
  .rodata            const    0x00205f48    0x14  main.o [1]
  .rodata            const    0x00205f5c    0x14  main.o [1]
  .rodata            const    0x00205f70    0x14  tc.o [1]
  .rodata            const    0x00205f84    0x10  board_lowlevel.o [1]
  .rodata            const    0x00205f94    0x10  main.o [1]
  .rodata            const    0x00205fa4    0x10  main.o [1]
  .rodata            const    0x00205fb4    0x10  twi.o [1]
  .rodata            const    0x00205fc4    0x10  twid.o [1]
  .rodata            const    0x00205fd4    0x10  twid.o [1]
  .rodata            const    0x00205fe4    0x10  xdmad.o [1]
  .rodata            const    0x00205ff4    0x10  xprintflarge_nomb.o [3]
  .rodata            const    0x00206004     0xc  act8945A.o [1]
  .rodata            const    0x00206010     0xc  act8945A.o [1]
  .rodata            const    0x0020601c     0xc  board_lowlevel.o [1]
  .rodata            const    0x00206028     0xc  main.o [1]
  .rodata            const    0x00206034     0xc  main.o [1]
  .rodata            const    0x00206040     0xc  twi.o [1]
  .rodata            const    0x0020604c     0xc  twi.o [1]
  .rodata            const    0x00206058     0xc  twid.o [1]
  .rodata            const    0x00206064     0x8  flexcom.o [1]
  .rodata            const    0x0020606c     0x8  main.o [1]
  .rodata            const    0x00206074     0x8  twi.o [1]
  .rodata            const    0x0020607c     0x8  xprintflarge_nomb.o [3]
  .rodata            const    0x00206084     0x4  led.o [1]
  .rodata            const    0x00206088     0x4  pio4_it.o [1]
  .text              ro code  0x0020608c     0x4  vectortrap.o [5]
  .rodata            const    0x00206090     0x0  zero_init3.o [5]
  .rodata            const    0x00206090     0x0  copy_init3.o [5]
  Initializer bytes  const    0x00206090    0xbc  <for P4 s0>
                            - 0x0020614c  0x604c

"P4":                                     0x237c
  P4 s0                       0x0020614c    0xbc  <Init block>
    .data            inited   0x0020614c    0xb8  board_lowlevel.o [1]
    .data            inited   0x00206204     0x1  main.o [1]
    .data            inited   0x00206205     0x1  main.o [1]
  .bss               zero     0x00206208   0x20c  twid.o [1]
  .bss               zero     0x00206414    0x18  act8945A.o [1]
  .bss               zero     0x0020642c     0x8  act8945A.o [1]
  .bss               zero     0x00206434     0x4  main.o [1]
  .bss               zero     0x00206438     0x4  pio4_it.o [1]
  .bss               zero     0x0020643c     0x4  pmc.o [1]
  .bss               zero     0x00206440     0x1  console.o [1]
  CSTACK                      0x00206448  0x2000  <Block>
    CSTACK           uninit   0x00206448  0x2000  <Block tail>
  IRQ_STACK                   0x00208448    0x40  <Block>
    IRQ_STACK        uninit   0x00208448    0x40  <Block tail>
  FIQ_STACK                   0x00208488    0x40  <Block>
    FIQ_STACK        uninit   0x00208488    0x40  <Block tail>
                            - 0x002084c8  0x237c


*******************************************************************************
*** INIT TABLE
***

          Address     Size
          -------     ----
Zero (__iar_zero_init3)
    1 destination range, total size 0x239:
          0x00206208  0x239

Copy (__iar_copy_init3)
    1 source range, total size 0xbc (101% of destination):
          0x00206090   0xbc
    1 destination range, total size 0xba:
          0x0020614c   0xba



*******************************************************************************
*** MODULE SUMMARY
***

    Module                ro code  ro data  rw data
    ------                -------  -------  -------
C:\Users\dfronek\Documents\Project\softpack\examples\getting_started\build\debug\Obj: [1]
    act8945A.o              1 496      132       32
    aic.o                     572
    board_cstartup_iar.o      312
    board_lowlevel.o        4 240    1 396      184
    board_memories.o           52
    console.o                 336       48        1
    flexcom.o                 148       80
    led.o                     364       40
    main.o                  1 032      458        6
    pio4.o                    732      124
    pio4_it.o                 132        4        4
    pit.o                     172
    pmc.o                     808       88        4
    spi.o                      12
    tc.o                      452      152
    twi.o                   1 292      220
    twid.o                  1 564      332      524
    uart.o                    292
    usart.o                    80
    wdt.o                      12
    xdmad.o                   392      136
    -----------------------------------------------
    Total:                 14 492    3 210      755

command line: [2]
    -----------------------------------------------
    Total:

dl7Sx_tln.a: [3]
    abort.o                     6
    assert.o                   30       32
    div.o                      28
    exit.o                      4
    printf.o                   40
    xprintflarge_nomb.o     3 116       26
    xprout.o                   22
    -----------------------------------------------
    Total:                  3 246       58

m7Sx_tl.a: [4]
    DblAdd.o                  212
    DblCmpLe.o                 46
    DblDiv.o                  908
    DblMul.o                  418
    DblSub.o                  384
    DblToI32.o                 44
    I32ToDbl.o                 28
    xdnorm.o                   66
    -----------------------------------------------
    Total:                  2 106

rt7Sx_tl.a: [5]
    ABImemcpy.o               212
    ABImemset.o               116
    I32DivMod.o               424
    I64DivMod.o               304
    I64DivZer.o                 4
    IntDivZer.o                 4
    XXexit.o                   20
    cexit.o                    16
    cmain.o                    44
    copy_init3.o               44
    data_init.o                48
    memchr.o                  148
    strchr.o                   32
    strlen.o                   84
    vectortrap.o                4
    zero_init3.o               34
    -----------------------------------------------
    Total:                  1 538

    Gaps                        6        2
    Linker created             16       38    8 320
---------------------------------------------------
    Grand Total:           21 404    3 308    9 075


*******************************************************************************
*** ENTRY LIST
***

Entry                      Address   Size  Type      Object
-----                      -------   ----  ----      ------
.iar.init_table$$Base   0x00205bc4          --   Gb  - Linker created -
.iar.init_table$$Limit  0x00205be8          --   Gb  - Linker created -
?main                   0x002054e0         Code  Gb  cmain.o [5]
ACC_Handler             0x00200288    0x4  Code  Wk  board_lowlevel.o [1]
ACT8945A_begin          0x0020402c  0x110  Code  Gb  act8945A.o [1]
ACT8945A_set_regulator_state_out4to7
                        0x00203d7c  0x110  Code  Gb  act8945A.o [1]
ACT8945A_set_regulator_voltage_out4to7
                        0x00203e8c  0x19c  Code  Gb  act8945A.o [1]
ADC_Handler             0x00200288    0x4  Code  Wk  board_lowlevel.o [1]
AESB_Handler            0x00200288    0x4  Code  Wk  board_lowlevel.o [1]
AES_Handler             0x00200288    0x4  Code  Wk  board_lowlevel.o [1]
AIC_Handler             0x00200288    0x4  Code  Wk  board_lowlevel.o [1]
CHIPID_Handler          0x00200288    0x4  Code  Wk  board_lowlevel.o [1]
CLASSD_Handler          0x00200288    0x4  Code  Wk  board_lowlevel.o [1]
CSTACK$$Base            0x00206448          --   Gb  - Linker created -
CSTACK$$Limit           0x00208448          --   Gb  - Linker created -
FIQ_STACK$$Base         0x00208488          --   Gb  - Linker created -
FIQ_STACK$$Limit        0x002084c8          --   Gb  - Linker created -
FIQ_handler             0x0020549c         Code  Gb  board_cstartup_iar.o [1]
FLEXCOM0_Handler        0x00200288    0x4  Code  Wk  board_lowlevel.o [1]
FLEXCOM1_Handler        0x00200288    0x4  Code  Wk  board_lowlevel.o [1]
FLEXCOM2_Handler        0x00200288    0x4  Code  Wk  board_lowlevel.o [1]
FLEXCOM3_Handler        0x00200288    0x4  Code  Wk  board_lowlevel.o [1]
FLEXCOM4_Handler        0x00200288    0x4  Code  Wk  board_lowlevel.o [1]
GMAC_Handler            0x00200288    0x4  Code  Wk  board_lowlevel.o [1]
HSMC_Handler            0x00200288    0x4  Code  Wk  board_lowlevel.o [1]
I2SC0_Handler           0x00200288    0x4  Code  Wk  board_lowlevel.o [1]
I2SC1_Handler           0x00200288    0x4  Code  Wk  board_lowlevel.o [1]
ICM_Handler             0x00200288    0x4  Code  Wk  board_lowlevel.o [1]
IRQ_STACK$$Base         0x00208448          --   Gb  - Linker created -
IRQ_STACK$$Limit        0x00208488          --   Gb  - Linker created -
IRQ_handler             0x00205440         Code  Gb  board_cstartup_iar.o [1]
L2CC_Handler            0x00200288    0x4  Code  Wk  board_lowlevel.o [1]
LCDC_Handler            0x00200288    0x4  Code  Wk  board_lowlevel.o [1]
LoadInt                 0x00201c69   0x6e  Code  Lc  xprintflarge_nomb.o [3]
MATRIX0_Handler         0x00200288    0x4  Code  Wk  board_lowlevel.o [1]
MATRIX1_Handler         0x00200288    0x4  Code  Wk  board_lowlevel.o [1]
MPDDRC_Handler          0x00200288    0x4  Code  Wk  board_lowlevel.o [1]
PDMIC_Handler           0x00200288    0x4  Code  Wk  board_lowlevel.o [1]
PIOA_Handler            0x00200288    0x4  Code  Wk  board_lowlevel.o [1]
PIOB_Handler            0x00200288    0x4  Code  Wk  board_lowlevel.o [1]
PIOC_Handler            0x00200288    0x4  Code  Wk  board_lowlevel.o [1]
PIOD_Handler            0x00200288    0x4  Code  Wk  board_lowlevel.o [1]
PIT_Handler             0x00200288    0x4  Code  Wk  board_lowlevel.o [1]
PWM_Handler             0x00200288    0x4  Code  Wk  board_lowlevel.o [1]
QSPI0_Handler           0x00200288    0x4  Code  Wk  board_lowlevel.o [1]
QSPI1_Handler           0x00200288    0x4  Code  Wk  board_lowlevel.o [1]
RXLP_Handler            0x00200288    0x4  Code  Wk  board_lowlevel.o [1]
Region$$Table$$Base     0x00205bc4          --   Gb  - Linker created -
Region$$Table$$Limit    0x00205be8          --   Gb  - Linker created -
SAIC_Handler            0x00200288    0x4  Code  Wk  board_lowlevel.o [1]
SFC_Handler             0x00200288    0x4  Code  Wk  board_lowlevel.o [1]
SFR_Handler             0x00200288    0x4  Code  Wk  board_lowlevel.o [1]
SHA_Handler             0x00200288    0x4  Code  Wk  board_lowlevel.o [1]
SPI0_Handler            0x00200288    0x4  Code  Wk  board_lowlevel.o [1]
SPI1_Handler            0x00200288    0x4  Code  Wk  board_lowlevel.o [1]
SSC0_Handler            0x00200288    0x4  Code  Wk  board_lowlevel.o [1]
SSC1_Handler            0x00200288    0x4  Code  Wk  board_lowlevel.o [1]
SWI_Handler             0x0020608c         Code  Wk  vectortrap.o [5]
Spurious_handler        0x00200288    0x4  Code  Wk  board_lowlevel.o [1]
TC0_Handler             0x00200288    0x4  Code  Wk  board_lowlevel.o [1]
TC1_Handler             0x00200288    0x4  Code  Wk  board_lowlevel.o [1]
TDES_Handler            0x00200288    0x4  Code  Wk  board_lowlevel.o [1]
TRNG_Handler            0x00200288    0x4  Code  Wk  board_lowlevel.o [1]
TWIHS0_Handler          0x00200288    0x4  Code  Wk  board_lowlevel.o [1]
TWIHS1_Handler          0x00200288    0x4  Code  Wk  board_lowlevel.o [1]
UART0_Handler           0x00200288    0x4  Code  Wk  board_lowlevel.o [1]
UART1_Handler           0x00200288    0x4  Code  Wk  board_lowlevel.o [1]
UART2_Handler           0x00200288    0x4  Code  Wk  board_lowlevel.o [1]
UART3_Handler           0x00200288    0x4  Code  Wk  board_lowlevel.o [1]
UART4_Handler           0x00200288    0x4  Code  Wk  board_lowlevel.o [1]
UDPHS_Handler           0x00200288    0x4  Code  Wk  board_lowlevel.o [1]
UHPHS_Handler           0x00200288    0x4  Code  Wk  board_lowlevel.o [1]
WDT_Disable             0x002050f4    0xc  Code  Gb  wdt.o [1]
WDT_Handler             0x00200288    0x4  Code  Wk  board_lowlevel.o [1]
XDMAC0_Handler          0x00200288    0x4  Code  Wk  board_lowlevel.o [1]
XDMAC1_Handler          0x00200288    0x4  Code  Wk  board_lowlevel.o [1]
XDMAD_Initialize        0x002034d8  0x180  Code  Gb  xdmad.o [1]
_GenldLargeNoMb         0x00202087  0x252  Code  Lc  xprintflarge_nomb.o [3]
_LdtobLargeNoMb         0x00201ddd  0x2a4  Code  Lc  xprintflarge_nomb.o [3]
_LitobLargeNoMb         0x00201cd7  0x106  Code  Lc  xprintflarge_nomb.o [3]
_PrintfLargeNoMb        0x002016db  0x588  Code  Gb  xprintflarge_nomb.o [3]
_Prout                  0x00205ecd   0x16  Code  Gb  xprout.o [3]
_PutcharsLargeNoMb      0x002022d9   0x2e  Code  Lc  xprintflarge_nomb.o [3]
_Wait                   0x002047b8   0x34  Code  Lc  main.o [1]
__ICFEDIT_region_RAM_end__ {Abs}
                        0x00220000          --   Gb  command line/config [2]
__ICFEDIT_region_RAM_start__ {Abs}
                        0x00200000          --   Gb  command line/config [2]
__ICFEDIT_size_cstack__ {Abs}
                        0x00002000          --   Gb  command line/config [2]
__ICFEDIT_size_fiqstack__ {Abs}
                        0x00000040          --   Gb  command line/config [2]
__ICFEDIT_size_heap__ {Abs}
                        0x00000400          --   Gb  command line/config [2]
__ICFEDIT_size_irqstack__ {Abs}
                        0x00000040          --   Gb  command line/config [2]
__ICFEDIT_size_vectors__ {Abs}
                        0x00000100          --   Gb  command line/config [2]
__aeabi_assert          0x002016bd   0x1e  Code  Gb  assert.o [3]
__aeabi_cdcmple         0x0020268d         Code  Gb  DblCmpLe.o [4]
__aeabi_d2uiz           0x00202bed         Code  Gb  DblToI32.o [4]
__aeabi_ddiv            0x00202860         Code  Gb  DblDiv.o [4]
__aeabi_dmul            0x002026bd         Code  Gb  DblMul.o [4]
__aeabi_dsub            0x00202c35         Code  Gb  DblSub.o [4]
__aeabi_idiv            0x00201514         Code  Gb  I32DivMod.o [5]
__aeabi_idiv0           0x00202328         Code  Gb  IntDivZer.o [5]
__aeabi_idivmod         0x00201514         Code  Gb  I32DivMod.o [5]
__aeabi_ldiv0           0x00202de4         Code  Gb  I64DivZer.o [5]
__aeabi_memcpy          0x00202574         Code  Gb  ABImemcpy.o [5]
__aeabi_memcpy4         0x00202598         Code  Gb  ABImemcpy.o [5]
__aeabi_memcpy8         0x00202598         Code  Gb  ABImemcpy.o [5]
__aeabi_memset          0x00204144         Code  Gb  ABImemset.o [5]
__aeabi_ui2d            0x00202c19         Code  Gb  I32ToDbl.o [4]
__aeabi_uidiv           0x00201540         Code  Gb  I32DivMod.o [5]
__aeabi_uidivmod        0x00201540         Code  Gb  I32DivMod.o [5]
__aeabi_uldivmod        0x00202444         Code  Gb  I64DivMod.o [5]
__cmain                 0x002054e0         Code  Gb  cmain.o [5]
__exit                  0x00202dd0         Code  Gb  XXexit.o [5]
__iar_Dnorm             0x00202649   0x42  Code  Gb  xdnorm.o [4]
__iar_Memchr            0x002023b0         Code  Gb  memchr.o [5]
__iar_Memset            0x00204144         Code  Gb  ABImemset.o [5]
__iar_Memset_word       0x0020414c         Code  Gb  ABImemset.o [5]
__iar_Strchr            0x0020233c         Code  Gb  strchr.o [5]
__iar_copy_init3        0x00205ae5   0x2c  Code  Gb  copy_init3.o [5]
__iar_d2uiz             0x00202bf9         Code  Gb  DblToI32.o [4]
__iar_dadd              0x00202de9         Code  Gb  DblAdd.o [4]
__iar_data_init3        0x0020550d   0x30  Code  Gb  data_init.o [5]
__iar_dsub              0x00202c49         Code  Gb  DblSub.o [4]
__iar_dsubStart         0x00202c5b         Code  Gb  DblSub.o [4]
__iar_program_start     0x002053e4         Code  Gb  board_cstartup_iar.o [1]
__iar_ui2d              0x00202c1d         Code  Gb  I32ToDbl.o [4]
__iar_zero_init3        0x00202307   0x22  Code  Gb  zero_init3.o [5]
__low_level_init        0x0020012c   0x64  Code  Wk  board_lowlevel.o [1]
_aic_enable_it          0x00204eb8   0x14  Code  Lc  aic.o [1]
_aic_set_source_vector  0x00204ecc   0x38  Code  Lc  aic.o [1]
_bConsoleIsInitialized  0x00206440    0x1  Data  Lc  console.o [1]
_call_main              0x002054f4         Code  Gb  cmain.o [5]
_exit                   0x00205548         Code  Gb  cexit.o [5]
_id_h64_matrix          0x002058e0   0x38  Data  Wk  xdmad.o [1]
_is_h64_matrix          0x00204f04   0x50  Code  Lc  aic.o [1]
_is_twi_ready           0x00203cd8    0xc  Code  Gb  act8945A.o [1]
_main                   0x002054fc         Code  Gb  cmain.o [5]
_pmc_compute_mck        0x00201190   0x74  Code  Lc  pmc.o [1]
_reset_vector           0x00200000         Data  Gb  board_cstartup_iar.o [1]
_twi_handler_init       0x00203bdc   0xfc  Code  Gb  act8945A.o [1]
_twid_rd_wr             0x00203ce4   0x7c  Code  Gb  act8945A.o [1]
abort                   0x00202335    0x6  Code  Gb  abort.o [3]
abort_c_handler         0x00200190   0x80  Code  Gb  board_lowlevel.o [1]
abort_status            0x0020614c   0xb8  Data  Lc  board_lowlevel.o [1]
aic_enable              0x00204f54   0xd8  Code  Gb  aic.o [1]
aic_set_source_vector   0x0020502c   0x90  Code  Gb  aic.o [1]
aic_write_protection    0x002050bc   0x20  Code  Gb  aic.o [1]
bLed1Active             0x00206204    0x1  Data  Gb  main.o [1]
bLed2Active             0x00206205    0x1  Data  Gb  main.o [1]
board_master_clock      0x0020643c    0x4  Data  Gb  pmc.o [1]
board_remap_ram         0x002014b8   0x34  Code  Gb  board_memories.o [1]
configure_leds          0x002046d0   0x20  Code  Lc  main.o [1]
configure_pit           0x0020469c   0x34  Code  Lc  main.o [1]
configure_tc            0x00204718   0xa0  Code  Lc  main.o [1]
console                 0x00205dac   0x18  Data  Lc  console.o [1]
console_configure       0x00204cbc   0x50  Code  Gb  console.o [1]
console_enable_interrupts
                        0x00204dc0   0x24  Code  Gb  console.o [1]
console_get_char        0x00204d50   0x38  Code  Gb  console.o [1]
console_handler         0x00204628   0x40  Code  Lc  main.o [1]
console_is_rx_ready     0x00204d88   0x38  Code  Gb  console.o [1]
console_put_char        0x00204d0c   0x44  Code  Gb  console.o [1]
div                     0x00202db5   0x1c  Code  Gb  div.o [3]
dummy_handler           0x00200288    0x4  Code  Gb  board_lowlevel.o [1]
dwTimeStamp             0x00206434    0x4  Data  Gb  main.o [1]
exit                    0x00205545    0x4  Code  Gb  exit.o [3]
flexcom_select          0x00204494   0x94  Code  Gb  flexcom.o [1]
get_flexcom_addr_from_id
                        0x00203b6c   0x70  Code  Lc  act8945A.o [1]
get_pio_id_from_group   0x002041b8   0x44  Code  Lc  pio4.o [1]
get_twi_id_from_addr    0x00203660   0xa0  Code  Lc  twi.o [1]
get_uart_id_from_addr   0x002052c0   0x84  Code  Lc  uart.o [1]
htwi                    0x00206414   0x18  Data  Gb  act8945A.o [1]
idt                     0x00206088    0x4  Data  Gb  pio4_it.o [1]
led_clear               0x00204a28   0x64  Code  Gb  led.o [1]
led_configure           0x0020498c   0x38  Code  Gb  led.o [1]
led_set                 0x002049c4   0x64  Code  Gb  led.o [1]
led_toggle              0x00204a8c   0x64  Code  Gb  led.o [1]
main                    0x002047ec  0x138  Code  Gb  main.o [1]
memchr                  0x002023b0         Code  Gb  memchr.o [5]
non_secure_it_init      0x0020028c  0x6c8  Code  Gb  board_lowlevel.o [1]
numLeds                 0x00206084    0x4  Data  Lc  led.o [1]
num_sources             0x00206438    0x4  Data  Lc  pio4_it.o [1]
peripherals_min_clock_dividers
                        0x00205184  0x13c  Data  Gb  board_lowlevel.o [1]
pinsConsole             0x00205dc4   0x18  Data  Lc  console.o [1]
pinsLeds                0x00205b58   0x24  Data  Lc  led.o [1]
pins_ctrl_act8945a      0x00206010    0xc  Data  Lc  act8945A.o [1]
pins_twi_act8945a       0x00206004    0xc  Data  Lc  act8945A.o [1]
pio_clear               0x002043ec   0x44  Code  Gb  pio4.o [1]
pio_configure           0x002041fc  0x1ac  Code  Gb  pio4.o [1]
pio_get_output_data_status
                        0x00204430   0x58  Code  Gb  pio4.o [1]
pio_initialize_it       0x00205100   0x7c  Code  Gb  pio4_it.o [1]
pio_set                 0x002043a8   0x44  Code  Gb  pio4.o [1]
pit_enable              0x00204e64   0x18  Code  Gb  pit.o [1]
pit_enable_it           0x00204e7c   0x18  Code  Gb  pit.o [1]
pit_get_pivr            0x00204ea0    0xc  Code  Gb  pit.o [1]
pit_get_status          0x00204e94    0xc  Code  Gb  pit.o [1]
pit_handler             0x00204668   0x34  Code  Lc  main.o [1]
pit_init                0x00204e0c   0x58  Code  Gb  pit.o [1]
pmc_enable_peripheral   0x00201278   0x44  Code  Gb  pmc.o [1]
pmc_get_master_clock    0x00201254   0x24  Code  Gb  pmc.o [1]
pmc_get_peripheral_max_clock
                        0x00201204   0x50  Code  Gb  pmc.o [1]
pmc_select_external_osc
                        0x002012bc   0x7c  Code  Gb  pmc.o [1]
pmc_set_mck_divider     0x0020143c   0x2c  Code  Gb  pmc.o [1]
pmc_set_mck_plla_div    0x002013cc   0x70  Code  Gb  pmc.o [1]
pmc_set_mck_prescaler   0x002013a0   0x2c  Code  Gb  pmc.o [1]
pmc_set_plla            0x00201468   0x24  Code  Gb  pmc.o [1]
pmc_switch_mck_to_main  0x0020136c   0x34  Code  Gb  pmc.o [1]
pmc_switch_mck_to_pll   0x00201338   0x34  Code  Gb  pmc.o [1]
prefetch_c_handler      0x00200210   0x68  Code  Gb  board_lowlevel.o [1]
printf                  0x002014ed   0x28  Code  Gb  printf.o [3]
process_button_evt      0x00204584   0xa4  Code  Lc  main.o [1]
putchar                 0x00204df0   0x1c  Code  Wk  console.o [1]
secure_it_init          0x002009bc  0x6c0  Code  Gb  board_lowlevel.o [1]
spi_disable             0x00204578    0xc  Code  Gb  spi.o [1]
strchr                  0x0020233c         Code  Gb  strchr.o [5]
strlen                  0x0020235c         Code  Gb  strlen.o [5]
tc_configure            0x00204af8   0x54  Code  Gb  tc.o [1]
tc_find_mck_divisor     0x00204bdc   0xd4  Code  Gb  tc.o [1]
tc_handler              0x002046f0   0x28  Code  Lc  main.o [1]
tc_start                0x00204b4c   0x48  Code  Gb  tc.o [1]
tc_stop                 0x00204b94   0x48  Code  Gb  tc.o [1]
twi_configure_master    0x00203700  0x118  Code  Gb  twi.o [1]
twi_dma                 0x00206208  0x20c  Data  Lc  twid.o [1]
twi_enable_it           0x00203a80   0x54  Code  Gb  twi.o [1]
twi_get_status          0x00203ad4   0x2c  Code  Gb  twi.o [1]
twi_is_transfer_complete
                        0x00203a50   0x30  Code  Gb  twi.o [1]
twi_read_byte           0x00203914   0x30  Code  Gb  twi.o [1]
twi_send_stop_condition
                        0x00203b00   0x34  Code  Gb  twi.o [1]
twi_start_read          0x00203848   0xcc  Code  Gb  twi.o [1]
twi_start_write         0x0020397c   0xd4  Code  Gb  twi.o [1]
twi_stop                0x00203818   0x30  Code  Gb  twi.o [1]
twi_write_byte          0x00203944   0x38  Code  Gb  twi.o [1]
twid_initialize         0x00202ebc   0x60  Code  Gb  twid.o [1]
twid_read               0x00202f1c  0x2bc  Code  Gb  twid.o [1]
twid_write              0x002031e8  0x2c8  Code  Gb  twid.o [1]
uart_configure          0x00205344   0x50  Code  Gb  uart.o [1]
uart_get_char           0x002053cc   0x18  Code  Gb  uart.o [1]
uart_is_rx_ready        0x002053c0    0xc  Code  Gb  uart.o [1]
uart_put_char           0x002053a4   0x1c  Code  Gb  uart.o [1]
uart_set_int            0x00205394   0x10  Code  Gb  uart.o [1]
undefined_c_Handler     0x00200278   0x10  Code  Gb  board_lowlevel.o [1]
usart_set_receiver_enabled
                        0x00204550   0x28  Code  Gb  usart.o [1]
usart_set_transmitter_enabled
                        0x00204528   0x28  Code  Gb  usart.o [1]
v_arm_clr_cpsr_bits     0x00200114   0x18  Code  Lc  board_lowlevel.o [1]
v_arm_set_cpsr_bits     0x00200100   0x14  Code  Lc  board_lowlevel.o [1]


[1] = C:\Users\dfronek\Documents\Project\softpack\examples\getting_started\build\debug\Obj
[2] = command line
[3] = dl7Sx_tln.a
[4] = m7Sx_tl.a
[5] = rt7Sx_tl.a

  21 404 bytes of readonly  code memory
   3 308 bytes of readonly  data memory
   9 075 bytes of readwrite data memory

Errors: none
Warnings: none
